; Function Attrs: nounwind uwtable
define void @Abc_ManResubCollectDivs_rec1(ptr noundef %0, ptr noundef %1) local_unnamed_addr #0 {
  %3 = tail call fastcc i32 @Abc_NodeIsTravIdCurrent(ptr noundef %0)
  %.not = icmp eq i32 %3, 0
  br i1 %.not, label %4, label %99

4:                                                ; preds = %2
  %.val12 = load ptr, ptr %0, align 8, !tbaa !70
  %5 = getelementptr i8, ptr %0, i64 16
  %.val13 = load i32, ptr %5, align 8, !tbaa !48
  %6 = getelementptr inbounds nuw i8, ptr %.val12, i64 216
  %7 = load i32, ptr %6, align 8, !tbaa !99
  %8 = getelementptr inbounds nuw i8, ptr %.val12, i64 224
  %9 = add nsw i32 %.val13, 1
  %10 = getelementptr inbounds nuw i8, ptr %.val12, i64 228
  %11 = load i32, ptr %10, align 4, !tbaa !40
  %.not.i.not.i.i.i = icmp slt i32 %.val13, %11
  br i1 %.not.i.not.i.i.i, label %Abc_NodeSetTravIdCurrent.exit, label %12

12:                                               ; preds = %4
  %13 = load i32, ptr %8, align 8, !tbaa !41
  %14 = shl nsw i32 %13, 1
  %.not.i.i.i = icmp slt i32 %.val13, %14
  %.not.i.i.not.i.i.i = icmp sgt i32 %13, %.val13
  br i1 %.not.i.i.i, label %27, label %15

15:                                               ; preds = %12
  br i1 %.not.i.i.not.i.i.i, label %Vec_IntGrow.exit.i.i.i.i, label %16

16:                                               ; preds = %15
  %17 = getelementptr inbounds nuw i8, ptr %.val12, i64 232
  %18 = load ptr, ptr %17, align 8, !tbaa !42
  %.not9.i.i.i.i.i = icmp eq ptr %18, null
  %19 = sext i32 %9 to i64
  %20 = shl nsw i64 %19, 2
  br i1 %.not9.i.i.i.i.i, label %23, label %21

21:                                               ; preds = %16
  %22 = tail call ptr @realloc(ptr noundef nonnull %18, i64 noundef %20) #24
  br label %25

23:                                               ; preds = %16
  %24 = tail call noalias ptr @malloc(i64 noundef %20) #23
  br label %25

25:                                               ; preds = %23, %21
  %26 = phi ptr [ %22, %21 ], [ %24, %23 ]
  store ptr %26, ptr %17, align 8, !tbaa !42
  br label %Vec_IntGrow.exit.sink.split.i.i.i.i

27:                                               ; preds = %12
  br i1 %.not.i.i.not.i.i.i, label %Vec_IntGrow.exit.i.i.i.i, label %28

28:                                               ; preds = %27
  %29 = getelementptr inbounds nuw i8, ptr %.val12, i64 232
  %30 = load ptr, ptr %29, align 8, !tbaa !42
  %.not9.i21.i.i.i.i = icmp eq ptr %30, null
  %31 = sext i32 %14 to i64
  %32 = shl nsw i64 %31, 2
  br i1 %.not9.i21.i.i.i.i, label %35, label %33

33:                                               ; preds = %28
  %34 = tail call ptr @realloc(ptr noundef nonnull %30, i64 noundef %32) #24
  br label %37

35:                                               ; preds = %28
  %36 = tail call noalias ptr @malloc(i64 noundef %32) #23
  br label %37

37:                                               ; preds = %35, %33
  %38 = phi ptr [ %34, %33 ], [ %36, %35 ]
  store ptr %38, ptr %29, align 8, !tbaa !42
  br label %Vec_IntGrow.exit.sink.split.i.i.i.i

Vec_IntGrow.exit.sink.split.i.i.i.i:              ; preds = %37, %25
  %.sink.i.i.i.i = phi i32 [ %14, %37 ], [ %9, %25 ]
  store i32 %.sink.i.i.i.i, ptr %8, align 8, !tbaa !41
  %.pre.i.i.i = load i32, ptr %10, align 4, !tbaa !40
  br label %Vec_IntGrow.exit.i.i.i.i

Vec_IntGrow.exit.i.i.i.i:                         ; preds = %Vec_IntGrow.exit.sink.split.i.i.i.i, %27, %15
  %39 = phi i32 [ %.pre.i.i.i, %Vec_IntGrow.exit.sink.split.i.i.i.i ], [ %11, %27 ], [ %11, %15 ]
  %.not4.i.i.i = icmp sgt i32 %39, %.val13
  br i1 %.not4.i.i.i, label %._crit_edge.i.i.i.i, label %.lr.ph.i.i.i.i

.lr.ph.i.i.i.i:                                   ; preds = %Vec_IntGrow.exit.i.i.i.i
  %40 = getelementptr inbounds nuw i8, ptr %.val12, i64 232
  %41 = load ptr, ptr %40, align 8, !tbaa !42
  %42 = sext i32 %39 to i64
  %43 = shl nsw i64 %42, 2
  %scevgep.i.i.i.i = getelementptr i8, ptr %41, i64 %43
  %44 = sub i32 %.val13, %39
  %45 = zext i32 %44 to i64
  %46 = shl nuw nsw i64 %45, 2
  %47 = add nuw nsw i64 %46, 4
  tail call void @llvm.memset.p0.i64(ptr noundef nonnull align 4 dereferenceable(1) %scevgep.i.i.i.i, i8 0, i64 %47, i1 false), !tbaa !29
  br label %._crit_edge.i.i.i.i

._crit_edge.i.i.i.i:                              ; preds = %.lr.ph.i.i.i.i, %Vec_IntGrow.exit.i.i.i.i
  store i32 %9, ptr %10, align 4, !tbaa !40
  %.val.pre = load ptr, ptr %0, align 8, !tbaa !70
  br label %Abc_NodeSetTravIdCurrent.exit

Abc_NodeSetTravIdCurrent.exit:                    ; preds = %4, %._crit_edge.i.i.i.i
  %.val = phi ptr [ %.val12, %4 ], [ %.val.pre, %._crit_edge.i.i.i.i ]
  %48 = getelementptr i8, ptr %.val12, i64 232
  %.val.i.i.i = load ptr, ptr %48, align 8, !tbaa !42
  %49 = sext i32 %.val13 to i64
  %50 = getelementptr inbounds i32, ptr %.val.i.i.i, i64 %49
  store i32 %7, ptr %50, align 4, !tbaa !29
  %51 = getelementptr i8, ptr %0, i64 32
  %.val9 = load ptr, ptr %51, align 8, !tbaa !71
  %52 = getelementptr i8, ptr %.val, i64 32
  %.val.val = load ptr, ptr %52, align 8, !tbaa !37
  %.val9.val = load i32, ptr %.val9, align 4, !tbaa !29
  %53 = getelementptr i8, ptr %.val.val, i64 8
  %.val.val.val = load ptr, ptr %53, align 8, !tbaa !46
  %54 = sext i32 %.val9.val to i64
  %55 = getelementptr inbounds ptr, ptr %.val.val.val, i64 %54
  %56 = load ptr, ptr %55, align 8, !tbaa !47
  tail call void @Abc_ManResubCollectDivs_rec1(ptr noundef %56, ptr noundef %1)
  %.val10 = load ptr, ptr %0, align 8, !tbaa !70
  %.val11 = load ptr, ptr %51, align 8, !tbaa !71
  %57 = getelementptr i8, ptr %.val10, i64 32
  %.val10.val = load ptr, ptr %57, align 8, !tbaa !37
  %58 = getelementptr i8, ptr %.val11, i64 4
  %.val11.val = load i32, ptr %58, align 4, !tbaa !29
  %59 = getelementptr i8, ptr %.val10.val, i64 8
  %.val10.val.val = load ptr, ptr %59, align 8, !tbaa !46
  %60 = sext i32 %.val11.val to i64
  %61 = getelementptr inbounds ptr, ptr %.val10.val.val, i64 %60
  %62 = load ptr, ptr %61, align 8, !tbaa !47
  tail call void @Abc_ManResubCollectDivs_rec1(ptr noundef %62, ptr noundef %1)
  %63 = getelementptr inbounds nuw i8, ptr %0, i64 20
  %64 = load i32, ptr %63, align 4
  %65 = and i32 %64, 16
  %66 = icmp eq i32 %65, 0
  br i1 %66, label %67, label %99

67:                                               ; preds = %Abc_NodeSetTravIdCurrent.exit
  %68 = getelementptr inbounds nuw i8, ptr %1, i64 4
  %69 = load i32, ptr %68, align 4, !tbaa !38
  %70 = load i32, ptr %1, align 8, !tbaa !68
  %71 = icmp eq i32 %69, %70
  br i1 %71, label %72, label %.Vec_PtrGrow.exit11_crit_edge.i

.Vec_PtrGrow.exit11_crit_edge.i:                  ; preds = %67
  %.phi.trans.insert.i = getelementptr inbounds nuw i8, ptr %1, i64 8
  %.pre.i = load ptr, ptr %.phi.trans.insert.i, align 8, !tbaa !46
  br label %Vec_PtrPush.exit

72:                                               ; preds = %67
  %73 = icmp slt i32 %69, 16
  br i1 %73, label %74, label %82

74:                                               ; preds = %72
  %75 = getelementptr inbounds nuw i8, ptr %1, i64 8
  %76 = load ptr, ptr %75, align 8, !tbaa !46
  %.not9.i.i = icmp eq ptr %76, null
  br i1 %.not9.i.i, label %79, label %77

77:                                               ; preds = %74
  %78 = tail call dereferenceable_or_null(128) ptr @realloc(ptr noundef nonnull %76, i64 noundef 128) #24
  br label %Vec_PtrGrow.exit.i

79:                                               ; preds = %74
  %80 = tail call noalias dereferenceable_or_null(128) ptr @malloc(i64 noundef 128) #23
  br label %Vec_PtrGrow.exit.i

Vec_PtrGrow.exit.i:                               ; preds = %79, %77
  %81 = phi ptr [ %78, %77 ], [ %80, %79 ]
  store ptr %81, ptr %75, align 8, !tbaa !46
  store i32 16, ptr %1, align 8, !tbaa !68
  br label %Vec_PtrPush.exit

82:                                               ; preds = %72
  %83 = shl nuw nsw i32 %69, 1
  %84 = getelementptr inbounds nuw i8, ptr %1, i64 8
  %85 = load ptr, ptr %84, align 8, !tbaa !46
  %.not9.i10.i = icmp eq ptr %85, null
  %86 = zext nneg i32 %83 to i64
  %87 = shl nuw nsw i64 %86, 3
  br i1 %.not9.i10.i, label %90, label %88

88:                                               ; preds = %82
  %89 = tail call ptr @realloc(ptr noundef nonnull %85, i64 noundef %87) #24
  br label %92

90:                                               ; preds = %82
  %91 = tail call noalias ptr @malloc(i64 noundef %87) #23
  br label %92

92:                                               ; preds = %90, %88
  %93 = phi ptr [ %89, %88 ], [ %91, %90 ]
  store ptr %93, ptr %84, align 8, !tbaa !46
  store i32 %83, ptr %1, align 8, !tbaa !68
  br label %Vec_PtrPush.exit

Vec_PtrPush.exit:                                 ; preds = %.Vec_PtrGrow.exit11_crit_edge.i, %Vec_PtrGrow.exit.i, %92
  %94 = phi ptr [ %.pre.i, %.Vec_PtrGrow.exit11_crit_edge.i ], [ %93, %92 ], [ %81, %Vec_PtrGrow.exit.i ]
  %95 = load i32, ptr %68, align 4, !tbaa !38
  %96 = add nsw i32 %95, 1
  store i32 %96, ptr %68, align 4, !tbaa !38
  %97 = sext i32 %95 to i64
  %98 = getelementptr inbounds ptr, ptr %94, i64 %97
  store ptr %0, ptr %98, align 8, !tbaa !47
  br label %99

99:                                               ; preds = %2, %Vec_PtrPush.exit, %Abc_NodeSetTravIdCurrent.exit
  ret void
}